target datalayout = "e-m:e-p270:32:32-p271:32:32-p272:64:64-i64:64-i128:128-f80:128-n8:16:32:64-S128"
target triple = "x86_64-pc-linux-gnu"

%struct.view_t = type { ptr, ptr, %struct.lv_style_t, %struct.lv_style_t, %struct.anon }
%struct.lv_style_t = type { ptr, i32, i8 }
%struct.anon = type { ptr, %struct.anon.0, %struct.anon.4 }
%struct.anon.0 = type { ptr, %struct.anon.1, %struct.anon.2, %struct.anon.3 }
%struct.anon.1 = type { ptr, ptr, ptr }
%struct.anon.2 = type { ptr, ptr, ptr, ptr }
%struct.anon.3 = type { ptr, ptr, ptr, ptr, ptr, ptr, ptr, ptr, ptr, ptr, ptr, ptr, ptr, ptr, ptr, ptr, ptr }
%struct.anon.4 = type { ptr, ptr, ptr }
%union.lv_style_value_t = type { ptr }

; Function Attrs: nounwind uwtable
define internal void @ctrl_pad_spinbox_event_handler(ptr noundef %0) #0 {
  %2 = alloca ptr, align 8
  %3 = alloca ptr, align 8
  %4 = alloca ptr, align 8
  %5 = alloca i8, align 1
  %6 = alloca %union.lv_style_value_t, align 8
  store ptr %0, ptr %2, align 8, !tbaa !3
  call void @llvm.lifetime.start.p0(i64 8, ptr %3) #5
  %7 = load ptr, ptr %2, align 8, !tbaa !3
  %8 = call ptr @lv_event_get_user_data(ptr noundef %7)
  store ptr %8, ptr %3, align 8, !tbaa !3
  call void @llvm.lifetime.start.p0(i64 8, ptr %4) #5
  %9 = load ptr, ptr %2, align 8, !tbaa !3
  %10 = call ptr @lv_event_get_target(ptr noundef %9)
  store ptr %10, ptr %4, align 8, !tbaa !3
  call void @llvm.lifetime.start.p0(i64 1, ptr %5) #5
  %11 = load ptr, ptr %4, align 8, !tbaa !3
  %12 = call ptr @lv_obj_get_user_data(ptr noundef %11)
  %13 = ptrtoint ptr %12 to i64
  %14 = trunc i64 %13 to i8
  store i8 %14, ptr %5, align 1, !tbaa !27
  call void @llvm.lifetime.start.p0(i64 8, ptr %6) #5
  %15 = load ptr, ptr %4, align 8, !tbaa !3
  %16 = call i32 @lv_spinbox_get_value(ptr noundef %15)
  store i32 %16, ptr %6, align 8, !tbaa !27
  %17 = getelementptr i8, ptr %6, i64 4
  call void @llvm.memset.p0.i64(ptr align 4 %17, i8 0, i64 4, i1 false)
  %18 = load ptr, ptr %3, align 8, !tbaa !3
  %19 = getelementptr inbounds nuw %struct.view_t, ptr %18, i32 0, i32 1
  %20 = load ptr, ptr %19, align 8, !tbaa !28
  %21 = icmp ne ptr %20, null
  br i1 %21, label %22, label %29

22:                                               ; preds = %1
  %23 = load ptr, ptr %3, align 8, !tbaa !3
  %24 = getelementptr inbounds nuw %struct.view_t, ptr %23, i32 0, i32 1
  %25 = load ptr, ptr %24, align 8, !tbaa !28
  %26 = load i8, ptr %5, align 1, !tbaa !27
  %27 = getelementptr inbounds nuw %union.lv_style_value_t, ptr %6, i32 0, i32 0
  %28 = load ptr, ptr %27, align 8
  call void @lv_obj_set_local_style_prop(ptr noundef %25, i8 noundef zeroext %26, ptr %28, i32 noundef 0)
  br label %29

29:                                               ; preds = %22, %1
  call void @llvm.lifetime.end.p0(i64 8, ptr %6) #5
  call void @llvm.lifetime.end.p0(i64 1, ptr %5) #5
  call void @llvm.lifetime.end.p0(i64 8, ptr %4) #5
  call void @llvm.lifetime.end.p0(i64 8, ptr %3) #5
  ret void
}