; Function Attrs: nounwind uwtable
define internal void @ctrl_pad_spinbox_event_handler(ptr noundef %0) #0 {
  %2 = tail call ptr @lv_event_get_user_data(ptr noundef %0) #2
  %3 = tail call ptr @lv_event_get_target(ptr noundef %0) #2
  %4 = tail call ptr @lv_obj_get_user_data(ptr noundef %3) #2
  %5 = tail call i32 @lv_spinbox_get_value(ptr noundef %3) #2
  %6 = getelementptr inbounds nuw i8, ptr %2, i64 8
  %7 = load ptr, ptr %6, align 8, !tbaa !26
  %.not = icmp eq ptr %7, null
  br i1 %.not, label %12, label %8

8:                                                ; preds = %1
  %.sroa.0.0.insert.ext = zext i32 %5 to i64
  %9 = inttoptr i64 %.sroa.0.0.insert.ext to ptr
  %10 = ptrtoint ptr %4 to i64
  %11 = trunc i64 %10 to i8
  tail call void @lv_obj_set_local_style_prop(ptr noundef nonnull %7, i8 noundef zeroext %11, ptr %9, i32 noundef 0) #2
  br label %12

12:                                               ; preds = %8, %1
  ret void
}